; ModuleID = 'source-C-CXX/30/1267.c'
source_filename = "source-C-CXX/30/1267.c"
target datalayout = "e-m:e-p270:32:32-p271:32:32-p272:64:64-i64:64-f80:128-n8:16:32:64-S128"
target triple = "x86_64-pc-linux-gnu"

%struct.student = type { [100 x i8], %struct.student* }

@.str = private unnamed_addr constant [4 x i8] c"end\00", align 1

; Function Attrs: nounwind sspstrong uwtable
define dso_local void @main() local_unnamed_addr #0 {
  %1 = tail call noalias align 16 dereferenceable_or_null(112) i8* @malloc(i64 112) #5
  %2 = bitcast i8* %1 to %struct.student*
  %3 = getelementptr inbounds %struct.student, %struct.student* %2, i64 0, i32 0, i64 0
  %4 = tail call i32 (i8*, ...) bitcast (i32 (...)* @gets to i32 (i8*, ...)*)(i8* %3) #5
  %5 = tail call i32 @strcmp(i8* noundef nonnull dereferenceable(1) %3, i8* noundef nonnull dereferenceable(4) getelementptr inbounds ([4 x i8], [4 x i8]* @.str, i64 0, i64 0)) #6
  %6 = icmp eq i32 %5, 0
  br i1 %6, label %24, label %7

7:                                                ; preds = %0
  %8 = tail call noalias align 16 dereferenceable_or_null(112) i8* @malloc(i64 112) #5
  %9 = bitcast i8* %8 to %struct.student*
  %10 = getelementptr inbounds %struct.student, %struct.student* %9, i64 0, i32 0, i64 0
  %11 = tail call i32 (i8*, ...) bitcast (i32 (...)* @gets to i32 (i8*, ...)*)(i8* %10) #5
  %12 = tail call i32 @strcmp(i8* noundef nonnull dereferenceable(1) %10, i8* noundef nonnull dereferenceable(4) getelementptr inbounds ([4 x i8], [4 x i8]* @.str, i64 0, i64 0)) #6
  %13 = icmp eq i32 %12, 0
  br i1 %13, label %24, label %14

14:                                               ; preds = %7, %14
  %15 = phi %struct.student* [ %16, %14 ], [ %2, %7 ]
  %16 = phi %struct.student* [ %19, %14 ], [ %9, %7 ]
  %17 = getelementptr inbounds %struct.student, %struct.student* %15, i64 0, i32 1
  store %struct.student* %16, %struct.student** %17, align 8, !tbaa !5
  %18 = tail call noalias align 16 dereferenceable_or_null(112) i8* @malloc(i64 112) #5
  %19 = bitcast i8* %18 to %struct.student*
  %20 = getelementptr inbounds %struct.student, %struct.student* %19, i64 0, i32 0, i64 0
  %21 = tail call i32 (i8*, ...) bitcast (i32 (...)* @gets to i32 (i8*, ...)*)(i8* %20) #5
  %22 = tail call i32 @strcmp(i8* noundef nonnull dereferenceable(1) %20, i8* noundef nonnull dereferenceable(4) getelementptr inbounds ([4 x i8], [4 x i8]* @.str, i64 0, i64 0)) #6
  %23 = icmp eq i32 %22, 0
  br i1 %23, label %24, label %14, !llvm.loop !10

24:                                               ; preds = %14, %7, %0
  %25 = phi %struct.student* [ %2, %0 ], [ %2, %7 ], [ %16, %14 ]
  %26 = phi %struct.student* [ null, %0 ], [ %2, %7 ], [ %2, %14 ]
  %27 = getelementptr inbounds %struct.student, %struct.student* %25, i64 0, i32 1
  store %struct.student* null, %struct.student** %27, align 8, !tbaa !5
  %28 = getelementptr inbounds %struct.student, %struct.student* %26, i64 0, i32 1
  br label %29

29:                                               ; preds = %37, %24
  %30 = load %struct.student*, %struct.student** %28, align 8, !tbaa !5
  br label %31

31:                                               ; preds = %31, %29
  %32 = phi %struct.student* [ %30, %29 ], [ %35, %31 ]
  %33 = phi %struct.student* [ %26, %29 ], [ %32, %31 ]
  %34 = getelementptr inbounds %struct.student, %struct.student* %32, i64 0, i32 1
  %35 = load %struct.student*, %struct.student** %34, align 8, !tbaa !5
  %36 = icmp eq %struct.student* %35, null
  br i1 %36, label %37, label %31

37:                                               ; preds = %31
  %38 = getelementptr inbounds %struct.student, %struct.student* %33, i64 0, i32 1
  %39 = getelementptr inbounds %struct.student, %struct.student* %32, i64 0, i32 0, i64 0
  %40 = tail call i32 @puts(i8* nonnull dereferenceable(1) %39)
  store %struct.student* null, %struct.student** %38, align 8, !tbaa !5
  %41 = icmp eq %struct.student* %33, %26
  br i1 %41, label %42, label %29

42:                                               ; preds = %37
  %43 = getelementptr inbounds %struct.student, %struct.student* %26, i64 0, i32 0, i64 0
  %44 = tail call i32 @puts(i8* nonnull dereferenceable(1) %43)
  ret void
}

; Function Attrs: inaccessiblememonly mustprogress nofree nounwind willreturn
declare noalias noundef align 16 i8* @malloc(i64 noundef) local_unnamed_addr #1

declare i32 @gets(...) local_unnamed_addr #2

; Function Attrs: argmemonly mustprogress nofree nounwind readonly willreturn
declare i32 @strcmp(i8* nocapture, i8* nocapture) local_unnamed_addr #3

; Function Attrs: nofree nounwind
declare noundef i32 @puts(i8* nocapture noundef readonly) local_unnamed_addr #4


!llvm.module.flags = !{!0, !1, !2, !3}
!llvm.ident = !{!4}

!0 = !{i32 1, !"wchar_size", i32 4}
!1 = !{i32 7, !"PIC Level", i32 2}
!2 = !{i32 7, !"PIE Level", i32 2}
!3 = !{i32 7, !"uwtable", i32 1}
!4 = !{!"clang version 13.0.0"}
!5 = !{!6, !9, i64 104}
!6 = !{!"student", !7, i64 0, !9, i64 104}
!7 = !{!"omnipotent char", !8, i64 0}
!8 = !{!"Simple C/C++ TBAA"}
!9 = !{!"any pointer", !7, i64 0}
!10 = distinct !{!10, !11, !12}
!11 = !{!"llvm.loop.mustprogress"}
!12 = !{!"llvm.loop.peeled.count", i32 1}
